target datalayout = "e-m:e-p270:32:32-p271:32:32-p272:64:64-i64:64-i128:128-f80:128-n8:16:32:64-S128"
target triple = "x86_64-pc-linux-gnu"

%struct.X509_extension_st = type { ptr, i32, ptr }

; Function Attrs: nounwind uwtable
define hidden ptr @X509V3_get_d2i(ptr noundef %0, i32 noundef %1, ptr noundef %2, ptr noundef %3) #0 {
  %5 = alloca ptr, align 8
  %6 = alloca ptr, align 8
  %7 = alloca i32, align 4
  %8 = alloca ptr, align 8
  %9 = alloca ptr, align 8
  %10 = alloca i32, align 4
  %11 = alloca i64, align 8
  %12 = alloca ptr, align 8
  %13 = alloca ptr, align 8
  %14 = alloca i32, align 4
  store ptr %0, ptr %6, align 8, !tbaa !44
  store i32 %1, ptr %7, align 4, !tbaa !20
  store ptr %2, ptr %8, align 8, !tbaa !46
  store ptr %3, ptr %9, align 8, !tbaa !46
  call void @llvm.lifetime.start.p0(i64 4, ptr %10) #7
  call void @llvm.lifetime.start.p0(i64 8, ptr %11) #7
  call void @llvm.lifetime.start.p0(i64 8, ptr %12) #7
  call void @llvm.lifetime.start.p0(i64 8, ptr %13) #7
  store ptr null, ptr %13, align 8, !tbaa !26
  %15 = load ptr, ptr %6, align 8, !tbaa !44
  %16 = icmp ne ptr %15, null
  br i1 %16, label %28, label %17

17:                                               ; preds = %4
  %18 = load ptr, ptr %9, align 8, !tbaa !46
  %19 = icmp ne ptr %18, null
  br i1 %19, label %20, label %22

20:                                               ; preds = %17
  %21 = load ptr, ptr %9, align 8, !tbaa !46
  store i32 -1, ptr %21, align 4, !tbaa !20
  br label %22

22:                                               ; preds = %20, %17
  %23 = load ptr, ptr %8, align 8, !tbaa !46
  %24 = icmp ne ptr %23, null
  br i1 %24, label %25, label %27

25:                                               ; preds = %22
  %26 = load ptr, ptr %8, align 8, !tbaa !46
  store i32 -1, ptr %26, align 4, !tbaa !20
  br label %27

27:                                               ; preds = %25, %22
  store ptr null, ptr %5, align 8
  store i32 1, ptr %14, align 4
  br label %106

28:                                               ; preds = %4
  %29 = load ptr, ptr %9, align 8, !tbaa !46
  %30 = icmp ne ptr %29, null
  br i1 %30, label %31, label %35

31:                                               ; preds = %28
  %32 = load ptr, ptr %9, align 8, !tbaa !46
  %33 = load i32, ptr %32, align 4, !tbaa !20
  %34 = add nsw i32 %33, 1
  store i32 %34, ptr %10, align 4, !tbaa !20
  br label %36

35:                                               ; preds = %28
  store i32 0, ptr %10, align 4, !tbaa !20
  br label %36

36:                                               ; preds = %35, %31
  %37 = load i32, ptr %10, align 4, !tbaa !20
  %38 = icmp slt i32 %37, 0
  br i1 %38, label %39, label %40

39:                                               ; preds = %36
  store i32 0, ptr %10, align 4, !tbaa !20
  br label %40

40:                                               ; preds = %39, %36
  %41 = load i32, ptr %10, align 4, !tbaa !20
  %42 = sext i32 %41 to i64
  store i64 %42, ptr %11, align 8, !tbaa !21
  br label %43

43:                                               ; preds = %79, %40
  %44 = load i64, ptr %11, align 8, !tbaa !21
  %45 = load ptr, ptr %6, align 8, !tbaa !44
  %46 = call i64 @sk_num(ptr noundef %45)
  %47 = icmp ult i64 %44, %46
  br i1 %47, label %48, label %82

48:                                               ; preds = %43
  %49 = load ptr, ptr %6, align 8, !tbaa !44
  %50 = load i64, ptr %11, align 8, !tbaa !21
  %51 = call ptr @sk_value(ptr noundef %49, i64 noundef %50)
  store ptr %51, ptr %12, align 8, !tbaa !26
  %52 = load ptr, ptr %12, align 8, !tbaa !26
  %53 = getelementptr inbounds nuw %struct.X509_extension_st, ptr %52, i32 0, i32 0
  %54 = load ptr, ptr %53, align 8, !tbaa !28
  %55 = call i32 @OBJ_obj2nid(ptr noundef %54)
  %56 = load i32, ptr %7, align 4, !tbaa !20
  %57 = icmp eq i32 %55, %56
  br i1 %57, label %58, label %78

58:                                               ; preds = %48
  %59 = load ptr, ptr %9, align 8, !tbaa !46
  %60 = icmp ne ptr %59, null
  br i1 %60, label %61, label %66

61:                                               ; preds = %58
  %62 = load i64, ptr %11, align 8, !tbaa !21
  %63 = trunc i64 %62 to i32
  %64 = load ptr, ptr %9, align 8, !tbaa !46
  store i32 %63, ptr %64, align 4, !tbaa !20
  %65 = load ptr, ptr %12, align 8, !tbaa !26
  store ptr %65, ptr %13, align 8, !tbaa !26
  br label %82

66:                                               ; preds = %58
  %67 = load ptr, ptr %13, align 8, !tbaa !26
  %68 = icmp ne ptr %67, null
  br i1 %68, label %69, label %75

69:                                               ; preds = %66
  %70 = load ptr, ptr %8, align 8, !tbaa !46
  %71 = icmp ne ptr %70, null
  br i1 %71, label %72, label %74

72:                                               ; preds = %69
  %73 = load ptr, ptr %8, align 8, !tbaa !46
  store i32 -2, ptr %73, align 4, !tbaa !20
  br label %74

74:                                               ; preds = %72, %69
  store ptr null, ptr %5, align 8
  store i32 1, ptr %14, align 4
  br label %106

75:                                               ; preds = %66
  br label %76

76:                                               ; preds = %75
  %77 = load ptr, ptr %12, align 8, !tbaa !26
  store ptr %77, ptr %13, align 8, !tbaa !26
  br label %78

78:                                               ; preds = %76, %48
  br label %79

79:                                               ; preds = %78
  %80 = load i64, ptr %11, align 8, !tbaa !21
  %81 = add i64 %80, 1
  store i64 %81, ptr %11, align 8, !tbaa !21
  br label %43, !llvm.loop !48

82:                                               ; preds = %61, %43
  %83 = load ptr, ptr %13, align 8, !tbaa !26
  %84 = icmp ne ptr %83, null
  br i1 %84, label %85, label %95

85:                                               ; preds = %82
  %86 = load ptr, ptr %8, align 8, !tbaa !46
  %87 = icmp ne ptr %86, null
  br i1 %87, label %88, label %92

88:                                               ; preds = %85
  %89 = load ptr, ptr %13, align 8, !tbaa !26
  %90 = call i32 @X509_EXTENSION_get_critical(ptr noundef %89)
  %91 = load ptr, ptr %8, align 8, !tbaa !46
  store i32 %90, ptr %91, align 4, !tbaa !20
  br label %92

92:                                               ; preds = %88, %85
  %93 = load ptr, ptr %13, align 8, !tbaa !26
  %94 = call ptr @X509V3_EXT_d2i(ptr noundef %93)
  store ptr %94, ptr %5, align 8
  store i32 1, ptr %14, align 4
  br label %106

95:                                               ; preds = %82
  %96 = load ptr, ptr %9, align 8, !tbaa !46
  %97 = icmp ne ptr %96, null
  br i1 %97, label %98, label %100

98:                                               ; preds = %95
  %99 = load ptr, ptr %9, align 8, !tbaa !46
  store i32 -1, ptr %99, align 4, !tbaa !20
  br label %100

100:                                              ; preds = %98, %95
  %101 = load ptr, ptr %8, align 8, !tbaa !46
  %102 = icmp ne ptr %101, null
  br i1 %102, label %103, label %105

103:                                              ; preds = %100
  %104 = load ptr, ptr %8, align 8, !tbaa !46
  store i32 -1, ptr %104, align 4, !tbaa !20
  br label %105

105:                                              ; preds = %103, %100
  store ptr null, ptr %5, align 8
  store i32 1, ptr %14, align 4
  br label %106

106:                                              ; preds = %105, %92, %74, %27
  call void @llvm.lifetime.end.p0(i64 8, ptr %13) #7
  call void @llvm.lifetime.end.p0(i64 8, ptr %12) #7
  call void @llvm.lifetime.end.p0(i64 8, ptr %11) #7
  call void @llvm.lifetime.end.p0(i64 4, ptr %10) #7
  %107 = load ptr, ptr %5, align 8
  ret ptr %107
}