; Function Attrs: nounwind uwtable
define hidden ptr @X509V3_get_d2i(ptr noundef %0, i32 noundef %1, ptr noundef writeonly captures(address_is_null) %2, ptr noundef captures(address_is_null) %3) local_unnamed_addr #0 {
  %.not = icmp eq ptr %0, null
  %.not44 = icmp eq ptr %3, null
  br i1 %.not, label %5, label %9

5:                                                ; preds = %4
  br i1 %.not44, label %7, label %6

6:                                                ; preds = %5
  store i32 -1, ptr %3, align 4, !tbaa !30
  br label %7

7:                                                ; preds = %6, %5
  %.not45 = icmp eq ptr %2, null
  br i1 %.not45, label %44, label %8

8:                                                ; preds = %7
  store i32 -1, ptr %2, align 4, !tbaa !30
  br label %44

9:                                                ; preds = %4
  br i1 %.not44, label %13, label %10

10:                                               ; preds = %9
  %11 = load i32, ptr %3, align 4, !tbaa !30
  %12 = add nsw i32 %11, 1
  br label %13

13:                                               ; preds = %9, %10
  %.035 = phi i32 [ %12, %10 ], [ 0, %9 ]
  %spec.store.select = tail call i32 @llvm.smax.i32(i32 %.035, i32 0)
  %14 = zext nneg i32 %spec.store.select to i64
  %15 = tail call i64 @sk_num(ptr noundef nonnull %0) #10
  %16 = icmp ugt i64 %15, %14
  br i1 %16, label %.lr.ph, label %._crit_edge.thread

.lr.ph:                                           ; preds = %13
  br i1 %.not44, label %.lr.ph.split.us, label %.lr.ph.split

.lr.ph.split.us:                                  ; preds = %.lr.ph, %22
  %.061.us = phi ptr [ %.2.us, %22 ], [ null, %.lr.ph ]
  %.03460.us = phi i64 [ %23, %22 ], [ %14, %.lr.ph ]
  %17 = tail call ptr @sk_value(ptr noundef nonnull %0, i64 noundef %.03460.us) #10
  %18 = load ptr, ptr %17, align 8, !tbaa !22
  %19 = tail call i32 @OBJ_obj2nid(ptr noundef %18) #10
  %20 = icmp eq i32 %19, %1
  br i1 %20, label %21, label %22

21:                                               ; preds = %.lr.ph.split.us
  %.not47.us = icmp eq ptr %.061.us, null
  br i1 %.not47.us, label %22, label %.split.us

22:                                               ; preds = %21, %.lr.ph.split.us
  %.2.us = phi ptr [ %.061.us, %.lr.ph.split.us ], [ %17, %21 ]
  %23 = add nuw i64 %.03460.us, 1
  %24 = tail call i64 @sk_num(ptr noundef nonnull %0) #10
  %25 = icmp ult i64 %23, %24
  br i1 %25, label %.lr.ph.split.us, label %._crit_edge, !llvm.loop !40

.lr.ph.split:                                     ; preds = %.lr.ph, %32
  %.03460 = phi i64 [ %33, %32 ], [ %14, %.lr.ph ]
  %26 = tail call ptr @sk_value(ptr noundef nonnull %0, i64 noundef %.03460) #10
  %27 = load ptr, ptr %26, align 8, !tbaa !22
  %28 = tail call i32 @OBJ_obj2nid(ptr noundef %27) #10
  %29 = icmp eq i32 %28, %1
  br i1 %29, label %.thread, label %32

.thread:                                          ; preds = %.lr.ph.split
  %30 = trunc i64 %.03460 to i32
  store i32 %30, ptr %3, align 4, !tbaa !30
  br label %36

.split.us:                                        ; preds = %21
  %.not48 = icmp eq ptr %2, null
  br i1 %.not48, label %44, label %31

31:                                               ; preds = %.split.us
  store i32 -2, ptr %2, align 4, !tbaa !30
  br label %44

32:                                               ; preds = %.lr.ph.split
  %33 = add nuw i64 %.03460, 1
  %34 = tail call i64 @sk_num(ptr noundef nonnull %0) #10
  %35 = icmp ult i64 %33, %34
  br i1 %35, label %.lr.ph.split, label %._crit_edge.thread, !llvm.loop !40

._crit_edge:                                      ; preds = %22
  %.not49 = icmp eq ptr %.2.us, null
  br i1 %.not49, label %._crit_edge.thread, label %36

36:                                               ; preds = %.thread, %._crit_edge
  %.154 = phi ptr [ %26, %.thread ], [ %.2.us, %._crit_edge ]
  %.not51 = icmp eq ptr %2, null
  br i1 %.not51, label %39, label %37

37:                                               ; preds = %36
  %38 = tail call i32 @X509_EXTENSION_get_critical(ptr noundef nonnull %.154) #10
  store i32 %38, ptr %2, align 4, !tbaa !30
  br label %39

39:                                               ; preds = %37, %36
  %40 = tail call ptr @X509V3_EXT_d2i(ptr noundef nonnull %.154)
  br label %44

._crit_edge.thread:                               ; preds = %32, %13, %._crit_edge
  br i1 %.not44, label %42, label %41

41:                                               ; preds = %._crit_edge.thread
  store i32 -1, ptr %3, align 4, !tbaa !30
  br label %42

42:                                               ; preds = %41, %._crit_edge.thread
  %.not50 = icmp eq ptr %2, null
  br i1 %.not50, label %44, label %43

43:                                               ; preds = %42
  store i32 -1, ptr %2, align 4, !tbaa !30
  br label %44

44:                                               ; preds = %42, %43, %.split.us, %31, %7, %8, %39
  %.033 = phi ptr [ %40, %39 ], [ null, %8 ], [ null, %7 ], [ null, %31 ], [ null, %.split.us ], [ null, %43 ], [ null, %42 ]
  ret ptr %.033
}